
Controle_acesso.elf:     file format elf32-avr

Sections:
Idx Name          Size      VMA       LMA       File off  Algn
  0 .data         00000058  00800100  000006e0  00000774  2**0
                  CONTENTS, ALLOC, LOAD, DATA
  1 .text         000006e0  00000000  00000000  00000094  2**1
                  CONTENTS, ALLOC, LOAD, READONLY, CODE
  2 .bss          00000017  00800158  00800158  000007cc  2**0
                  ALLOC
  3 .comment      00000030  00000000  00000000  000007cc  2**0
                  CONTENTS, READONLY
  4 .note.gnu.avr.deviceinfo 0000003c  00000000  00000000  000007fc  2**2
                  CONTENTS, READONLY
  5 .debug_aranges 000000c0  00000000  00000000  00000838  2**0
                  CONTENTS, READONLY, DEBUGGING
  6 .debug_info   00001b53  00000000  00000000  000008f8  2**0
                  CONTENTS, READONLY, DEBUGGING
  7 .debug_abbrev 00000cfb  00000000  00000000  0000244b  2**0
                  CONTENTS, READONLY, DEBUGGING
  8 .debug_line   000008e5  00000000  00000000  00003146  2**0
                  CONTENTS, READONLY, DEBUGGING
  9 .debug_frame  00000200  00000000  00000000  00003a2c  2**2
                  CONTENTS, READONLY, DEBUGGING
 10 .debug_str    00000726  00000000  00000000  00003c2c  2**0
                  CONTENTS, READONLY, DEBUGGING
 11 .debug_loc    00000e40  00000000  00000000  00004352  2**0
                  CONTENTS, READONLY, DEBUGGING
 12 .debug_ranges 000000d8  00000000  00000000  00005192  2**0
                  CONTENTS, READONLY, DEBUGGING

Disassembly of section .text:

00000000 <__vectors>:
   0:	0c 94 34 00 	jmp	0x68	; 0x68 <__ctors_end>
   4:	0c 94 51 00 	jmp	0xa2	; 0xa2 <__bad_interrupt>
   8:	0c 94 51 00 	jmp	0xa2	; 0xa2 <__bad_interrupt>
   c:	0c 94 51 00 	jmp	0xa2	; 0xa2 <__bad_interrupt>
  10:	0c 94 51 00 	jmp	0xa2	; 0xa2 <__bad_interrupt>
  14:	0c 94 51 00 	jmp	0xa2	; 0xa2 <__bad_interrupt>
  18:	0c 94 51 00 	jmp	0xa2	; 0xa2 <__bad_interrupt>
  1c:	0c 94 51 00 	jmp	0xa2	; 0xa2 <__bad_interrupt>
  20:	0c 94 51 00 	jmp	0xa2	; 0xa2 <__bad_interrupt>
  24:	0c 94 51 00 	jmp	0xa2	; 0xa2 <__bad_interrupt>
  28:	0c 94 51 00 	jmp	0xa2	; 0xa2 <__bad_interrupt>
  2c:	0c 94 51 00 	jmp	0xa2	; 0xa2 <__bad_interrupt>
  30:	0c 94 51 00 	jmp	0xa2	; 0xa2 <__bad_interrupt>
  34:	0c 94 51 00 	jmp	0xa2	; 0xa2 <__bad_interrupt>
  38:	0c 94 51 00 	jmp	0xa2	; 0xa2 <__bad_interrupt>
  3c:	0c 94 51 00 	jmp	0xa2	; 0xa2 <__bad_interrupt>
  40:	0c 94 51 00 	jmp	0xa2	; 0xa2 <__bad_interrupt>
  44:	0c 94 51 00 	jmp	0xa2	; 0xa2 <__bad_interrupt>
  48:	0c 94 e8 01 	jmp	0x3d0	; 0x3d0 <__vector_18>
  4c:	0c 94 51 00 	jmp	0xa2	; 0xa2 <__bad_interrupt>
  50:	0c 94 51 00 	jmp	0xa2	; 0xa2 <__bad_interrupt>
  54:	0c 94 51 00 	jmp	0xa2	; 0xa2 <__bad_interrupt>
  58:	0c 94 51 00 	jmp	0xa2	; 0xa2 <__bad_interrupt>
  5c:	0c 94 51 00 	jmp	0xa2	; 0xa2 <__bad_interrupt>
  60:	0c 94 51 00 	jmp	0xa2	; 0xa2 <__bad_interrupt>
  64:	0c 94 51 00 	jmp	0xa2	; 0xa2 <__bad_interrupt>

00000068 <__ctors_end>:
  68:	11 24       	eor	r1, r1
  6a:	1f be       	out	0x3f, r1	; 63
  6c:	cf ef       	ldi	r28, 0xFF	; 255
  6e:	d8 e0       	ldi	r29, 0x08	; 8
  70:	de bf       	out	0x3e, r29	; 62
  72:	cd bf       	out	0x3d, r28	; 61

00000074 <__do_copy_data>:
  74:	11 e0       	ldi	r17, 0x01	; 1
  76:	a0 e0       	ldi	r26, 0x00	; 0
  78:	b1 e0       	ldi	r27, 0x01	; 1
  7a:	e0 ee       	ldi	r30, 0xE0	; 224
  7c:	f6 e0       	ldi	r31, 0x06	; 6
  7e:	02 c0       	rjmp	.+4      	; 0x84 <__do_copy_data+0x10>
  80:	05 90       	lpm	r0, Z+
  82:	0d 92       	st	X+, r0
  84:	a8 35       	cpi	r26, 0x58	; 88
  86:	b1 07       	cpc	r27, r17
  88:	d9 f7       	brne	.-10     	; 0x80 <__do_copy_data+0xc>

0000008a <__do_clear_bss>:
  8a:	21 e0       	ldi	r18, 0x01	; 1
  8c:	a8 e5       	ldi	r26, 0x58	; 88
  8e:	b1 e0       	ldi	r27, 0x01	; 1
  90:	01 c0       	rjmp	.+2      	; 0x94 <.do_clear_bss_start>

00000092 <.do_clear_bss_loop>:
  92:	1d 92       	st	X+, r1

00000094 <.do_clear_bss_start>:
  94:	af 36       	cpi	r26, 0x6F	; 111
  96:	b2 07       	cpc	r27, r18
  98:	e1 f7       	brne	.-8      	; 0x92 <.do_clear_bss_loop>
  9a:	0e 94 3d 01 	call	0x27a	; 0x27a <main>
  9e:	0c 94 6e 03 	jmp	0x6dc	; 0x6dc <_exit>

000000a2 <__bad_interrupt>:
  a2:	0c 94 00 00 	jmp	0	; 0x0 <__vectors>

000000a6 <_ZN3LCD7cmd_LCDEhc>:
	cmd_LCD(0x80,0); //escreve na primeira posi??o a esquerda - 1? linha
	sist_inic();
}
void LCD::cmd_LCD(unsigned char c, char cd)//c ? o dado e cd indica se ? instru??o ou caractere
{
	DADOS_LCD = c;
  a6:	65 b9       	out	0x05, r22	; 5
	if(cd==0)
  a8:	41 11       	cpse	r20, r1
  aa:	14 c0       	rjmp	.+40     	; 0xd4 <_ZN3LCD7cmd_LCDEhc+0x2e>
	clr_bit(CONTR_LCD,RS); //RS = 0
  ac:	5a 98       	cbi	0x0b, 2	; 11
	#else
		//round up by default
		__ticks_dc = (uint32_t)(ceil(fabs(__tmp)));
	#endif

	__builtin_avr_delay_cycles(__ticks_dc);
  ae:	8a e1       	ldi	r24, 0x1A	; 26
  b0:	8a 95       	dec	r24
  b2:	f1 f7       	brne	.-4      	; 0xb0 <_ZN3LCD7cmd_LCDEhc+0xa>
  b4:	00 c0       	rjmp	.+0      	; 0xb6 <_ZN3LCD7cmd_LCDEhc+0x10>
	else
	set_bit(CONTR_LCD,RS); //RS = 1
	pulso_enable();	//se for instru??o de limpeza ou retorno de cursor espera o tempo necess?rio
  b6:	5b 9a       	sbi	0x0b, 3	; 11
  b8:	9a e1       	ldi	r25, 0x1A	; 26
  ba:	9a 95       	dec	r25
  bc:	f1 f7       	brne	.-4      	; 0xba <_ZN3LCD7cmd_LCDEhc+0x14>
  be:	00 c0       	rjmp	.+0      	; 0xc0 <_ZN3LCD7cmd_LCDEhc+0x1a>
  c0:	5b 98       	cbi	0x0b, 3	; 11
  c2:	83 e8       	ldi	r24, 0x83	; 131
  c4:	93 e0       	ldi	r25, 0x03	; 3
  c6:	01 97       	sbiw	r24, 0x01	; 1
  c8:	f1 f7       	brne	.-4      	; 0xc6 <_ZN3LCD7cmd_LCDEhc+0x20>
  ca:	00 c0       	rjmp	.+0      	; 0xcc <_ZN3LCD7cmd_LCDEhc+0x26>
  cc:	00 00       	nop
	if((cd==0) && (c<4))
  ce:	64 30       	cpi	r22, 0x04	; 4
  d0:	c8 f4       	brcc	.+50     	; 0x104 <_ZN3LCD7cmd_LCDEhc+0x5e>
  d2:	12 c0       	rjmp	.+36     	; 0xf8 <_ZN3LCD7cmd_LCDEhc+0x52>
{
	DADOS_LCD = c;
	if(cd==0)
	clr_bit(CONTR_LCD,RS); //RS = 0
	else
	set_bit(CONTR_LCD,RS); //RS = 1
  d4:	5a 9a       	sbi	0x0b, 2	; 11
  d6:	9a e1       	ldi	r25, 0x1A	; 26
  d8:	9a 95       	dec	r25
  da:	f1 f7       	brne	.-4      	; 0xd8 <_ZN3LCD7cmd_LCDEhc+0x32>
  dc:	00 c0       	rjmp	.+0      	; 0xde <_ZN3LCD7cmd_LCDEhc+0x38>
	pulso_enable();	//se for instru??o de limpeza ou retorno de cursor espera o tempo necess?rio
  de:	5b 9a       	sbi	0x0b, 3	; 11
  e0:	8a e1       	ldi	r24, 0x1A	; 26
  e2:	8a 95       	dec	r24
  e4:	f1 f7       	brne	.-4      	; 0xe2 <_ZN3LCD7cmd_LCDEhc+0x3c>
  e6:	00 c0       	rjmp	.+0      	; 0xe8 <_ZN3LCD7cmd_LCDEhc+0x42>
  e8:	5b 98       	cbi	0x0b, 3	; 11
  ea:	83 e8       	ldi	r24, 0x83	; 131
  ec:	93 e0       	ldi	r25, 0x03	; 3
  ee:	01 97       	sbiw	r24, 0x01	; 1
  f0:	f1 f7       	brne	.-4      	; 0xee <_ZN3LCD7cmd_LCDEhc+0x48>
  f2:	00 c0       	rjmp	.+0      	; 0xf4 <_ZN3LCD7cmd_LCDEhc+0x4e>
  f4:	00 00       	nop
  f6:	08 95       	ret
	#else
		//round up by default
		__ticks_dc = (uint32_t)(ceil(fabs(__tmp)));
	#endif

	__builtin_avr_delay_cycles(__ticks_dc);
  f8:	8f e9       	ldi	r24, 0x9F	; 159
  fa:	9f e0       	ldi	r25, 0x0F	; 15
  fc:	01 97       	sbiw	r24, 0x01	; 1
  fe:	f1 f7       	brne	.-4      	; 0xfc <_ZN3LCD7cmd_LCDEhc+0x56>
 100:	00 c0       	rjmp	.+0      	; 0x102 <_ZN3LCD7cmd_LCDEhc+0x5c>
 102:	00 00       	nop
 104:	08 95       	ret

00000106 <_ZN3LCD5limpaEv>:
	if(limpar)	limpa();
	for (; *c!=0;c++) cmd_LCD(*c,1);
}
void LCD::limpa()
{
	cmd_LCD(0x01,0);
 106:	40 e0       	ldi	r20, 0x00	; 0
 108:	61 e0       	ldi	r22, 0x01	; 1
 10a:	0e 94 53 00 	call	0xa6	; 0xa6 <_ZN3LCD7cmd_LCDEhc>
 10e:	08 95       	ret

00000110 <_ZN3LCD11escreve_LCDEPcb>:
	pulso_enable();	//se for instru??o de limpeza ou retorno de cursor espera o tempo necess?rio
	if((cd==0) && (c<4))
	_delay_ms(2);
}
void LCD::escreve_LCD(char *c,bool limpar)
{
 110:	0f 93       	push	r16
 112:	1f 93       	push	r17
 114:	cf 93       	push	r28
 116:	df 93       	push	r29
 118:	8c 01       	movw	r16, r24
 11a:	eb 01       	movw	r28, r22
	if(limpar)	limpa();
 11c:	41 11       	cpse	r20, r1
 11e:	0e 94 83 00 	call	0x106	; 0x106 <_ZN3LCD5limpaEv>
	for (; *c!=0;c++) cmd_LCD(*c,1);
 122:	68 81       	ld	r22, Y
 124:	66 23       	and	r22, r22
 126:	41 f0       	breq	.+16     	; 0x138 <_ZN3LCD11escreve_LCDEPcb+0x28>
 128:	21 96       	adiw	r28, 0x01	; 1
 12a:	41 e0       	ldi	r20, 0x01	; 1
 12c:	c8 01       	movw	r24, r16
 12e:	0e 94 53 00 	call	0xa6	; 0xa6 <_ZN3LCD7cmd_LCDEhc>
 132:	69 91       	ld	r22, Y+
 134:	61 11       	cpse	r22, r1
 136:	f9 cf       	rjmp	.-14     	; 0x12a <_ZN3LCD11escreve_LCDEPcb+0x1a>
}
 138:	df 91       	pop	r29
 13a:	cf 91       	pop	r28
 13c:	1f 91       	pop	r17
 13e:	0f 91       	pop	r16
 140:	08 95       	ret

00000142 <_ZN3LCD9sist_inicEv>:
void LCD::limpa()
{
	cmd_LCD(0x01,0);
}
void LCD::sist_inic(){
 142:	cf 93       	push	r28
 144:	df 93       	push	r29
 146:	ec 01       	movw	r28, r24
	escreve_LCD("Sistema iniciado.",true);
 148:	41 e0       	ldi	r20, 0x01	; 1
 14a:	66 e0       	ldi	r22, 0x06	; 6
 14c:	71 e0       	ldi	r23, 0x01	; 1
 14e:	0e 94 88 00 	call	0x110	; 0x110 <_ZN3LCD11escreve_LCDEPcb>
 152:	2f ef       	ldi	r18, 0xFF	; 255
 154:	84 e3       	ldi	r24, 0x34	; 52
 156:	9c e0       	ldi	r25, 0x0C	; 12
 158:	21 50       	subi	r18, 0x01	; 1
 15a:	80 40       	sbci	r24, 0x00	; 0
 15c:	90 40       	sbci	r25, 0x00	; 0
 15e:	e1 f7       	brne	.-8      	; 0x158 <_ZN3LCD9sist_inicEv+0x16>
 160:	00 c0       	rjmp	.+0      	; 0x162 <_ZN3LCD9sist_inicEv+0x20>
 162:	00 00       	nop
	_delay_ms(500);
	limpa();
 164:	ce 01       	movw	r24, r28
 166:	0e 94 83 00 	call	0x106	; 0x106 <_ZN3LCD5limpaEv>
}
 16a:	df 91       	pop	r29
 16c:	cf 91       	pop	r28
 16e:	08 95       	ret

00000170 <_ZN3LCD14inic_LCD_8bitsEv>:
 *  Author: RodolfoSchiavi
 */ 
#include "LCD.h"

void LCD::inic_LCD_8bits()//sequ?ncia ditada pelo fabricando do circuito de controle do LCD
{
 170:	cf 93       	push	r28
 172:	df 93       	push	r29
 174:	ec 01       	movw	r28, r24
	clr_bit(CONTR_LCD,RS);//o LCD ser? s? escrito ent?o R/W ? sempre zero
 176:	5a 98       	cbi	0x0b, 2	; 11
 178:	8f e2       	ldi	r24, 0x2F	; 47
 17a:	95 e7       	ldi	r25, 0x75	; 117
 17c:	01 97       	sbiw	r24, 0x01	; 1
 17e:	f1 f7       	brne	.-4      	; 0x17c <_ZN3LCD14inic_LCD_8bitsEv+0xc>
 180:	00 c0       	rjmp	.+0      	; 0x182 <_ZN3LCD14inic_LCD_8bitsEv+0x12>
 182:	00 00       	nop
	_delay_ms(15); //tempo para estabilizar a tens?o do LCD, ap?s VCC ultrapassar 4.5 V (pode ser bem maior na pr?tica)//
	DADOS_LCD = 0x38; //interface 8 bits, 2 linhas, matriz 7x5 pontos
 184:	88 e3       	ldi	r24, 0x38	; 56
 186:	85 b9       	out	0x05, r24	; 5
	#else
		//round up by default
		__ticks_dc = (uint32_t)(ceil(fabs(__tmp)));
	#endif

	__builtin_avr_delay_cycles(__ticks_dc);
 188:	9a e1       	ldi	r25, 0x1A	; 26
 18a:	9a 95       	dec	r25
 18c:	f1 f7       	brne	.-4      	; 0x18a <_ZN3LCD14inic_LCD_8bitsEv+0x1a>
 18e:	00 c0       	rjmp	.+0      	; 0x190 <_ZN3LCD14inic_LCD_8bitsEv+0x20>
	pulso_enable(); //enable respeitando os tempos de resposta do LCD
 190:	5b 9a       	sbi	0x0b, 3	; 11
 192:	8a e1       	ldi	r24, 0x1A	; 26
 194:	8a 95       	dec	r24
 196:	f1 f7       	brne	.-4      	; 0x194 <_ZN3LCD14inic_LCD_8bitsEv+0x24>
 198:	00 c0       	rjmp	.+0      	; 0x19a <_ZN3LCD14inic_LCD_8bitsEv+0x2a>
 19a:	5b 98       	cbi	0x0b, 3	; 11
 19c:	83 e8       	ldi	r24, 0x83	; 131
 19e:	93 e0       	ldi	r25, 0x03	; 3
 1a0:	01 97       	sbiw	r24, 0x01	; 1
 1a2:	f1 f7       	brne	.-4      	; 0x1a0 <_ZN3LCD14inic_LCD_8bitsEv+0x30>
 1a4:	00 c0       	rjmp	.+0      	; 0x1a6 <_ZN3LCD14inic_LCD_8bitsEv+0x36>
 1a6:	00 00       	nop
	#else
		//round up by default
		__ticks_dc = (uint32_t)(ceil(fabs(__tmp)));
	#endif

	__builtin_avr_delay_cycles(__ticks_dc);
 1a8:	8f e0       	ldi	r24, 0x0F	; 15
 1aa:	97 e2       	ldi	r25, 0x27	; 39
 1ac:	01 97       	sbiw	r24, 0x01	; 1
 1ae:	f1 f7       	brne	.-4      	; 0x1ac <_ZN3LCD14inic_LCD_8bitsEv+0x3c>
 1b0:	00 c0       	rjmp	.+0      	; 0x1b2 <_ZN3LCD14inic_LCD_8bitsEv+0x42>
 1b2:	00 00       	nop
	#else
		//round up by default
		__ticks_dc = (uint32_t)(ceil(fabs(__tmp)));
	#endif

	__builtin_avr_delay_cycles(__ticks_dc);
 1b4:	9a e1       	ldi	r25, 0x1A	; 26
 1b6:	9a 95       	dec	r25
 1b8:	f1 f7       	brne	.-4      	; 0x1b6 <_ZN3LCD14inic_LCD_8bitsEv+0x46>
 1ba:	00 c0       	rjmp	.+0      	; 0x1bc <_ZN3LCD14inic_LCD_8bitsEv+0x4c>
	_delay_ms(5);
	pulso_enable();
 1bc:	5b 9a       	sbi	0x0b, 3	; 11
 1be:	8a e1       	ldi	r24, 0x1A	; 26
 1c0:	8a 95       	dec	r24
 1c2:	f1 f7       	brne	.-4      	; 0x1c0 <_ZN3LCD14inic_LCD_8bitsEv+0x50>
 1c4:	00 c0       	rjmp	.+0      	; 0x1c6 <_ZN3LCD14inic_LCD_8bitsEv+0x56>
 1c6:	5b 98       	cbi	0x0b, 3	; 11
 1c8:	83 e8       	ldi	r24, 0x83	; 131
 1ca:	93 e0       	ldi	r25, 0x03	; 3
 1cc:	01 97       	sbiw	r24, 0x01	; 1
 1ce:	f1 f7       	brne	.-4      	; 0x1cc <_ZN3LCD14inic_LCD_8bitsEv+0x5c>
 1d0:	00 c0       	rjmp	.+0      	; 0x1d2 <_ZN3LCD14inic_LCD_8bitsEv+0x62>
 1d2:	00 00       	nop
 1d4:	8f e8       	ldi	r24, 0x8F	; 143
 1d6:	91 e0       	ldi	r25, 0x01	; 1
 1d8:	01 97       	sbiw	r24, 0x01	; 1
 1da:	f1 f7       	brne	.-4      	; 0x1d8 <_ZN3LCD14inic_LCD_8bitsEv+0x68>
 1dc:	00 c0       	rjmp	.+0      	; 0x1de <_ZN3LCD14inic_LCD_8bitsEv+0x6e>
 1de:	00 00       	nop
 1e0:	9a e1       	ldi	r25, 0x1A	; 26
 1e2:	9a 95       	dec	r25
 1e4:	f1 f7       	brne	.-4      	; 0x1e2 <_ZN3LCD14inic_LCD_8bitsEv+0x72>
 1e6:	00 c0       	rjmp	.+0      	; 0x1e8 <_ZN3LCD14inic_LCD_8bitsEv+0x78>
	_delay_us(200);
	pulso_enable();
 1e8:	5b 9a       	sbi	0x0b, 3	; 11
 1ea:	8a e1       	ldi	r24, 0x1A	; 26
 1ec:	8a 95       	dec	r24
 1ee:	f1 f7       	brne	.-4      	; 0x1ec <_ZN3LCD14inic_LCD_8bitsEv+0x7c>
 1f0:	00 c0       	rjmp	.+0      	; 0x1f2 <_ZN3LCD14inic_LCD_8bitsEv+0x82>
 1f2:	5b 98       	cbi	0x0b, 3	; 11
 1f4:	83 e8       	ldi	r24, 0x83	; 131
 1f6:	93 e0       	ldi	r25, 0x03	; 3
 1f8:	01 97       	sbiw	r24, 0x01	; 1
 1fa:	f1 f7       	brne	.-4      	; 0x1f8 <_ZN3LCD14inic_LCD_8bitsEv+0x88>
 1fc:	00 c0       	rjmp	.+0      	; 0x1fe <_ZN3LCD14inic_LCD_8bitsEv+0x8e>
 1fe:	00 00       	nop
 200:	9a e1       	ldi	r25, 0x1A	; 26
 202:	9a 95       	dec	r25
 204:	f1 f7       	brne	.-4      	; 0x202 <_ZN3LCD14inic_LCD_8bitsEv+0x92>
 206:	00 c0       	rjmp	.+0      	; 0x208 <_ZN3LCD14inic_LCD_8bitsEv+0x98>
	pulso_enable();
 208:	5b 9a       	sbi	0x0b, 3	; 11
 20a:	8a e1       	ldi	r24, 0x1A	; 26
 20c:	8a 95       	dec	r24
 20e:	f1 f7       	brne	.-4      	; 0x20c <_ZN3LCD14inic_LCD_8bitsEv+0x9c>
 210:	00 c0       	rjmp	.+0      	; 0x212 <_ZN3LCD14inic_LCD_8bitsEv+0xa2>
 212:	5b 98       	cbi	0x0b, 3	; 11
 214:	83 e8       	ldi	r24, 0x83	; 131
 216:	93 e0       	ldi	r25, 0x03	; 3
 218:	01 97       	sbiw	r24, 0x01	; 1
 21a:	f1 f7       	brne	.-4      	; 0x218 <_ZN3LCD14inic_LCD_8bitsEv+0xa8>
 21c:	00 c0       	rjmp	.+0      	; 0x21e <_ZN3LCD14inic_LCD_8bitsEv+0xae>
 21e:	00 00       	nop
	//cmd_LCD(0X0E,0);
	cmd_LCD(0x08,0); //desliga LCD
 220:	40 e0       	ldi	r20, 0x00	; 0
 222:	68 e0       	ldi	r22, 0x08	; 8
 224:	ce 01       	movw	r24, r28
 226:	0e 94 53 00 	call	0xa6	; 0xa6 <_ZN3LCD7cmd_LCDEhc>
	cmd_LCD(0x01,0); //limpa todo o display
 22a:	40 e0       	ldi	r20, 0x00	; 0
 22c:	61 e0       	ldi	r22, 0x01	; 1
 22e:	ce 01       	movw	r24, r28
 230:	0e 94 53 00 	call	0xa6	; 0xa6 <_ZN3LCD7cmd_LCDEhc>
	cmd_LCD(0x0C,0); //mensagem aparente cursor inativo n?o piscando
 234:	40 e0       	ldi	r20, 0x00	; 0
 236:	6c e0       	ldi	r22, 0x0C	; 12
 238:	ce 01       	movw	r24, r28
 23a:	0e 94 53 00 	call	0xa6	; 0xa6 <_ZN3LCD7cmd_LCDEhc>
	cmd_LCD(0x80,0); //escreve na primeira posi??o a esquerda - 1? linha
 23e:	40 e0       	ldi	r20, 0x00	; 0
 240:	60 e8       	ldi	r22, 0x80	; 128
 242:	ce 01       	movw	r24, r28
 244:	0e 94 53 00 	call	0xa6	; 0xa6 <_ZN3LCD7cmd_LCDEhc>
	sist_inic();
 248:	ce 01       	movw	r24, r28
 24a:	0e 94 a1 00 	call	0x142	; 0x142 <_ZN3LCD9sist_inicEv>
}
 24e:	df 91       	pop	r29
 250:	cf 91       	pop	r28
 252:	08 95       	ret

00000254 <_Z24inicializa_registradoresv>:
	_db.cria_tabela();
    while(1){}
}

void inicializa_registradores(){
		DDRD |=0x0C;
 254:	8a b1       	in	r24, 0x0a	; 10
 256:	8c 60       	ori	r24, 0x0C	; 12
 258:	8a b9       	out	0x0a, r24	; 10
		DDRB = 0XFF;
 25a:	8f ef       	ldi	r24, 0xFF	; 255
 25c:	84 b9       	out	0x04, r24	; 4
		DDRC |= (1<<LED);
 25e:	3b 9a       	sbi	0x07, 3	; 7
		UCSR0B = (1<<RXCIE0)|(1<<RXEN0)|(1<<TXEN0); //Ativa a interrupção por recebimento. A comunicação envio e recebimento
 260:	88 e9       	ldi	r24, 0x98	; 152
 262:	80 93 c1 00 	sts	0x00C1, r24	; 0x8000c1 <__TEXT_REGION_LENGTH__+0x7e00c1>
		UCSR0C = (1<<UPM01)|(1<<UCSZ00)|(1<<UCSZ01);
 266:	86 e2       	ldi	r24, 0x26	; 38
 268:	80 93 c2 00 	sts	0x00C2, r24	; 0x8000c2 <__TEXT_REGION_LENGTH__+0x7e00c2>
		UBRR0H = (BAUD_PRESCALE >> 8);
 26c:	10 92 c5 00 	sts	0x00C5, r1	; 0x8000c5 <__TEXT_REGION_LENGTH__+0x7e00c5>
		UBRR0L = BAUD_PRESCALE;
 270:	83 e3       	ldi	r24, 0x33	; 51
 272:	80 93 c4 00 	sts	0x00C4, r24	; 0x8000c4 <__TEXT_REGION_LENGTH__+0x7e00c4>
		sei();
 276:	78 94       	sei
 278:	08 95       	ret

0000027a <main>:
void inicializa_registradores();
void limpa_senha();

int main(void)
{
	inicializa_registradores();
 27a:	0e 94 2a 01 	call	0x254	; 0x254 <_Z24inicializa_registradoresv>
	_estados=aguarda_digito;
 27e:	10 92 63 01 	sts	0x0163, r1	; 0x800163 <_estados>
	lcd.inic_LCD_8bits();
 282:	8a e6       	ldi	r24, 0x6A	; 106
 284:	91 e0       	ldi	r25, 0x01	; 1
 286:	0e 94 b8 00 	call	0x170	; 0x170 <_ZN3LCD14inic_LCD_8bitsEv>
	_db.cria_tabela();
 28a:	84 e6       	ldi	r24, 0x64	; 100
 28c:	91 e0       	ldi	r25, 0x01	; 1
 28e:	0e 94 0e 02 	call	0x41c	; 0x41c <_ZN2DB11cria_tabelaEv>
 292:	ff cf       	rjmp	.-2      	; 0x292 <main+0x18>

00000294 <_Z11limpa_senhav>:
			lcd.escreve_LCD("*",false);
		}
	}
}
void limpa_senha(){
			for(int i=0;i<n_chars_senha;i++){
 294:	80 91 62 01 	lds	r24, 0x0162	; 0x800162 <n_chars_senha>
 298:	88 23       	and	r24, r24
 29a:	49 f0       	breq	.+18     	; 0x2ae <_Z11limpa_senhav+0x1a>
 29c:	e8 e5       	ldi	r30, 0x58	; 88
 29e:	f1 e0       	ldi	r31, 0x01	; 1
 2a0:	90 e0       	ldi	r25, 0x00	; 0
 2a2:	88 5a       	subi	r24, 0xA8	; 168
 2a4:	9e 4f       	sbci	r25, 0xFE	; 254
				senha[i]=0x00;
 2a6:	11 92       	st	Z+, r1
			lcd.escreve_LCD("*",false);
		}
	}
}
void limpa_senha(){
			for(int i=0;i<n_chars_senha;i++){
 2a8:	e8 17       	cp	r30, r24
 2aa:	f9 07       	cpc	r31, r25
 2ac:	e1 f7       	brne	.-8      	; 0x2a6 <_Z11limpa_senhav+0x12>
				senha[i]=0x00;
			}
			n_chars_senha=0;
 2ae:	10 92 62 01 	sts	0x0162, r1	; 0x800162 <n_chars_senha>
 2b2:	08 95       	ret

000002b4 <_Z13processa_charc>:
		UCSR0C = (1<<UPM01)|(1<<UCSZ00)|(1<<UCSZ01);
		UBRR0H = (BAUD_PRESCALE >> 8);
		UBRR0L = BAUD_PRESCALE;
		sei();
}
void processa_char(char c){
 2b4:	cf 93       	push	r28
 2b6:	df 93       	push	r29
	if(c==0x0D){ //Verifica se foi pressionado o enter
 2b8:	8d 30       	cpi	r24, 0x0D	; 13
 2ba:	99 f5       	brne	.+102    	; 0x322 <_Z13processa_charc+0x6e>
		/*Preparar para enviar para verificação de senha*/
		lcd.escreve_LCD("Enter",true);
 2bc:	41 e0       	ldi	r20, 0x01	; 1
 2be:	69 e2       	ldi	r22, 0x29	; 41
 2c0:	71 e0       	ldi	r23, 0x01	; 1
 2c2:	8a e6       	ldi	r24, 0x6A	; 106
 2c4:	91 e0       	ldi	r25, 0x01	; 1
 2c6:	0e 94 88 00 	call	0x110	; 0x110 <_ZN3LCD11escreve_LCDEPcb>
		if(_db.verifica_senha(senha,n_chars_senha)){
 2ca:	40 91 62 01 	lds	r20, 0x0162	; 0x800162 <n_chars_senha>
 2ce:	68 e5       	ldi	r22, 0x58	; 88
 2d0:	71 e0       	ldi	r23, 0x01	; 1
 2d2:	84 e6       	ldi	r24, 0x64	; 100
 2d4:	91 e0       	ldi	r25, 0x01	; 1
 2d6:	0e 94 2e 02 	call	0x45c	; 0x45c <_ZN2DB14verifica_senhaEPhh>
 2da:	88 23       	and	r24, r24
 2dc:	41 f0       	breq	.+16     	; 0x2ee <_Z13processa_charc+0x3a>
			lcd.escreve_LCD("Belezaa",true);
 2de:	41 e0       	ldi	r20, 0x01	; 1
 2e0:	6f e2       	ldi	r22, 0x2F	; 47
 2e2:	71 e0       	ldi	r23, 0x01	; 1
 2e4:	8a e6       	ldi	r24, 0x6A	; 106
 2e6:	91 e0       	ldi	r25, 0x01	; 1
 2e8:	0e 94 88 00 	call	0x110	; 0x110 <_ZN3LCD11escreve_LCDEPcb>
 2ec:	07 c0       	rjmp	.+14     	; 0x2fc <_Z13processa_charc+0x48>
		}
		else
			lcd.escreve_LCD("Não deu match!",true);
 2ee:	41 e0       	ldi	r20, 0x01	; 1
 2f0:	67 e3       	ldi	r22, 0x37	; 55
 2f2:	71 e0       	ldi	r23, 0x01	; 1
 2f4:	8a e6       	ldi	r24, 0x6A	; 106
 2f6:	91 e0       	ldi	r25, 0x01	; 1
 2f8:	0e 94 88 00 	call	0x110	; 0x110 <_ZN3LCD11escreve_LCDEPcb>
	#else
		//round up by default
		__ticks_dc = (uint32_t)(ceil(fabs(__tmp)));
	#endif

	__builtin_avr_delay_cycles(__ticks_dc);
 2fc:	2f ef       	ldi	r18, 0xFF	; 255
 2fe:	84 e3       	ldi	r24, 0x34	; 52
 300:	9c e0       	ldi	r25, 0x0C	; 12
 302:	21 50       	subi	r18, 0x01	; 1
 304:	80 40       	sbci	r24, 0x00	; 0
 306:	90 40       	sbci	r25, 0x00	; 0
 308:	e1 f7       	brne	.-8      	; 0x302 <_Z13processa_charc+0x4e>
 30a:	00 c0       	rjmp	.+0      	; 0x30c <_Z13processa_charc+0x58>
 30c:	00 00       	nop
		_delay_ms(500);
		lcd.escreve_LCD("Digite a senha:",true);
 30e:	41 e0       	ldi	r20, 0x01	; 1
 310:	66 e4       	ldi	r22, 0x46	; 70
 312:	71 e0       	ldi	r23, 0x01	; 1
 314:	8a e6       	ldi	r24, 0x6A	; 106
 316:	91 e0       	ldi	r25, 0x01	; 1
 318:	0e 94 88 00 	call	0x110	; 0x110 <_ZN3LCD11escreve_LCDEPcb>
		limpa_senha();
 31c:	0e 94 4a 01 	call	0x294	; 0x294 <_Z11limpa_senhav>
 320:	54 c0       	rjmp	.+168    	; 0x3ca <_Z13processa_charc+0x116>
	}
	else if((c==0x08)&&(n_chars_senha>0)){ //Verifica se o backspace foi pressionado e se o numero de caracteres é positivo
 322:	88 30       	cpi	r24, 0x08	; 8
 324:	41 f5       	brne	.+80     	; 0x376 <_Z13processa_charc+0xc2>
 326:	e0 91 62 01 	lds	r30, 0x0162	; 0x800162 <n_chars_senha>
 32a:	ee 23       	and	r30, r30
 32c:	09 f4       	brne	.+2      	; 0x330 <_Z13processa_charc+0x7c>
 32e:	4d c0       	rjmp	.+154    	; 0x3ca <_Z13processa_charc+0x116>
		n_chars_senha--;
 330:	e1 50       	subi	r30, 0x01	; 1
 332:	e0 93 62 01 	sts	0x0162, r30	; 0x800162 <n_chars_senha>
		senha[n_chars_senha]=0x00; //remove o ultimo caracter do array
 336:	f0 e0       	ldi	r31, 0x00	; 0
 338:	e8 5a       	subi	r30, 0xA8	; 168
 33a:	fe 4f       	sbci	r31, 0xFE	; 254
 33c:	10 82       	st	Z, r1
		lcd.escreve_LCD("Senha: ",true);
 33e:	41 e0       	ldi	r20, 0x01	; 1
 340:	61 e2       	ldi	r22, 0x21	; 33
 342:	71 e0       	ldi	r23, 0x01	; 1
 344:	8a e6       	ldi	r24, 0x6A	; 106
 346:	91 e0       	ldi	r25, 0x01	; 1
 348:	0e 94 88 00 	call	0x110	; 0x110 <_ZN3LCD11escreve_LCDEPcb>
		for(int i=0;i<n_chars_senha;i++){
 34c:	80 91 62 01 	lds	r24, 0x0162	; 0x800162 <n_chars_senha>
 350:	88 23       	and	r24, r24
 352:	d9 f1       	breq	.+118    	; 0x3ca <_Z13processa_charc+0x116>
 354:	c0 e0       	ldi	r28, 0x00	; 0
 356:	d0 e0       	ldi	r29, 0x00	; 0
					lcd.escreve_LCD("*",false); //Escreve asteriscos para cada caracter na senha
 358:	40 e0       	ldi	r20, 0x00	; 0
 35a:	66 e5       	ldi	r22, 0x56	; 86
 35c:	71 e0       	ldi	r23, 0x01	; 1
 35e:	8a e6       	ldi	r24, 0x6A	; 106
 360:	91 e0       	ldi	r25, 0x01	; 1
 362:	0e 94 88 00 	call	0x110	; 0x110 <_ZN3LCD11escreve_LCDEPcb>
	}
	else if((c==0x08)&&(n_chars_senha>0)){ //Verifica se o backspace foi pressionado e se o numero de caracteres é positivo
		n_chars_senha--;
		senha[n_chars_senha]=0x00; //remove o ultimo caracter do array
		lcd.escreve_LCD("Senha: ",true);
		for(int i=0;i<n_chars_senha;i++){
 366:	21 96       	adiw	r28, 0x01	; 1
 368:	80 91 62 01 	lds	r24, 0x0162	; 0x800162 <n_chars_senha>
 36c:	90 e0       	ldi	r25, 0x00	; 0
 36e:	c8 17       	cp	r28, r24
 370:	d9 07       	cpc	r29, r25
 372:	94 f3       	brlt	.-28     	; 0x358 <_Z13processa_charc+0xa4>
 374:	2a c0       	rjmp	.+84     	; 0x3ca <_Z13processa_charc+0x116>
					lcd.escreve_LCD("*",false); //Escreve asteriscos para cada caracter na senha
		}
	}
	else if(c>0x21){ //verifica se teclas não especiais foram pressionadas
 376:	82 32       	cpi	r24, 0x22	; 34
 378:	40 f1       	brcs	.+80     	; 0x3ca <_Z13processa_charc+0x116>
		senha[n_chars_senha]=c;
 37a:	e0 91 62 01 	lds	r30, 0x0162	; 0x800162 <n_chars_senha>
 37e:	f0 e0       	ldi	r31, 0x00	; 0
 380:	e8 5a       	subi	r30, 0xA8	; 168
 382:	fe 4f       	sbci	r31, 0xFE	; 254
 384:	80 83       	st	Z, r24
		lcd.escreve_LCD("Senha: ",true);
 386:	41 e0       	ldi	r20, 0x01	; 1
 388:	61 e2       	ldi	r22, 0x21	; 33
 38a:	71 e0       	ldi	r23, 0x01	; 1
 38c:	8a e6       	ldi	r24, 0x6A	; 106
 38e:	91 e0       	ldi	r25, 0x01	; 1
 390:	0e 94 88 00 	call	0x110	; 0x110 <_ZN3LCD11escreve_LCDEPcb>
		if(n_chars_senha<9)
 394:	80 91 62 01 	lds	r24, 0x0162	; 0x800162 <n_chars_senha>
 398:	89 30       	cpi	r24, 0x09	; 9
 39a:	18 f4       	brcc	.+6      	; 0x3a2 <_Z13processa_charc+0xee>
			n_chars_senha++;
 39c:	8f 5f       	subi	r24, 0xFF	; 255
 39e:	80 93 62 01 	sts	0x0162, r24	; 0x800162 <n_chars_senha>
		for(int i=0;i<n_chars_senha;i++){
 3a2:	80 91 62 01 	lds	r24, 0x0162	; 0x800162 <n_chars_senha>
 3a6:	88 23       	and	r24, r24
 3a8:	81 f0       	breq	.+32     	; 0x3ca <_Z13processa_charc+0x116>
 3aa:	c0 e0       	ldi	r28, 0x00	; 0
 3ac:	d0 e0       	ldi	r29, 0x00	; 0
			lcd.escreve_LCD("*",false);
 3ae:	40 e0       	ldi	r20, 0x00	; 0
 3b0:	66 e5       	ldi	r22, 0x56	; 86
 3b2:	71 e0       	ldi	r23, 0x01	; 1
 3b4:	8a e6       	ldi	r24, 0x6A	; 106
 3b6:	91 e0       	ldi	r25, 0x01	; 1
 3b8:	0e 94 88 00 	call	0x110	; 0x110 <_ZN3LCD11escreve_LCDEPcb>
	else if(c>0x21){ //verifica se teclas não especiais foram pressionadas
		senha[n_chars_senha]=c;
		lcd.escreve_LCD("Senha: ",true);
		if(n_chars_senha<9)
			n_chars_senha++;
		for(int i=0;i<n_chars_senha;i++){
 3bc:	21 96       	adiw	r28, 0x01	; 1
 3be:	80 91 62 01 	lds	r24, 0x0162	; 0x800162 <n_chars_senha>
 3c2:	90 e0       	ldi	r25, 0x00	; 0
 3c4:	c8 17       	cp	r28, r24
 3c6:	d9 07       	cpc	r29, r25
 3c8:	94 f3       	brlt	.-28     	; 0x3ae <_Z13processa_charc+0xfa>
			lcd.escreve_LCD("*",false);
		}
	}
}
 3ca:	df 91       	pop	r29
 3cc:	cf 91       	pop	r28
 3ce:	08 95       	ret

000003d0 <__vector_18>:
				senha[i]=0x00;
			}
			n_chars_senha=0;
}

ISR(USART_RX_vect){
 3d0:	1f 92       	push	r1
 3d2:	0f 92       	push	r0
 3d4:	0f b6       	in	r0, 0x3f	; 63
 3d6:	0f 92       	push	r0
 3d8:	11 24       	eor	r1, r1
 3da:	2f 93       	push	r18
 3dc:	3f 93       	push	r19
 3de:	4f 93       	push	r20
 3e0:	5f 93       	push	r21
 3e2:	6f 93       	push	r22
 3e4:	7f 93       	push	r23
 3e6:	8f 93       	push	r24
 3e8:	9f 93       	push	r25
 3ea:	af 93       	push	r26
 3ec:	bf 93       	push	r27
 3ee:	ef 93       	push	r30
 3f0:	ff 93       	push	r31
	char ReceivedByte;
	ReceivedByte = UDR0; //Lê o registrador que tem a palavra recebida
 3f2:	80 91 c6 00 	lds	r24, 0x00C6	; 0x8000c6 <__TEXT_REGION_LENGTH__+0x7e00c6>
	processa_char(ReceivedByte);
 3f6:	0e 94 5a 01 	call	0x2b4	; 0x2b4 <_Z13processa_charc>
 3fa:	ff 91       	pop	r31
 3fc:	ef 91       	pop	r30
 3fe:	bf 91       	pop	r27
 400:	af 91       	pop	r26
 402:	9f 91       	pop	r25
 404:	8f 91       	pop	r24
 406:	7f 91       	pop	r23
 408:	6f 91       	pop	r22
 40a:	5f 91       	pop	r21
 40c:	4f 91       	pop	r20
 40e:	3f 91       	pop	r19
 410:	2f 91       	pop	r18
 412:	0f 90       	pop	r0
 414:	0f be       	out	0x3f, r0	; 63
 416:	0f 90       	pop	r0
 418:	1f 90       	pop	r1
 41a:	18 95       	reti

0000041c <_ZN2DB11cria_tabelaEv>:
	for(int i=0;i<6;i++){
		db[n-1].senha[i]=rand()%10+48; //Gera um número aleatório de 0 a 9 em decimal e convertido em char pela ascII
	}
	db[n-1].acessos=48;
	lcd.usuario_criado(&db[n-1].userID);
}
 41c:	cf 93       	push	r28
 41e:	df 93       	push	r29
 420:	ec 01       	movw	r28, r24
 422:	81 e0       	ldi	r24, 0x01	; 1
 424:	90 e0       	ldi	r25, 0x00	; 0
 426:	9a 83       	std	Y+2, r25	; 0x02
 428:	89 83       	std	Y+1, r24	; 0x01
 42a:	88 e0       	ldi	r24, 0x08	; 8
 42c:	90 e0       	ldi	r25, 0x00	; 0
 42e:	0e 94 4d 02 	call	0x49a	; 0x49a <malloc>
 432:	fc 01       	movw	r30, r24
 434:	9c 83       	std	Y+4, r25	; 0x04
 436:	8b 83       	std	Y+3, r24	; 0x03
 438:	81 e3       	ldi	r24, 0x31	; 49
 43a:	80 83       	st	Z, r24
 43c:	81 83       	std	Z+1, r24	; 0x01
 43e:	82 e3       	ldi	r24, 0x32	; 50
 440:	82 83       	std	Z+2, r24	; 0x02
 442:	83 e3       	ldi	r24, 0x33	; 51
 444:	83 83       	std	Z+3, r24	; 0x03
 446:	84 e3       	ldi	r24, 0x34	; 52
 448:	84 83       	std	Z+4, r24	; 0x04
 44a:	85 e3       	ldi	r24, 0x35	; 53
 44c:	85 83       	std	Z+5, r24	; 0x05
 44e:	86 e3       	ldi	r24, 0x36	; 54
 450:	86 83       	std	Z+6, r24	; 0x06
 452:	80 e3       	ldi	r24, 0x30	; 48
 454:	87 83       	std	Z+7, r24	; 0x07
 456:	df 91       	pop	r29
 458:	cf 91       	pop	r28
 45a:	08 95       	ret

0000045c <_ZN2DB14verifica_senhaEPhh>:

bool DB::verifica_senha(unsigned char *senha,unsigned char tamanho_senha){
	int caracteres_corretos=0;
 	if(tamanho_senha==6){
 45c:	46 30       	cpi	r20, 0x06	; 6
 45e:	a9 f4       	brne	.+42     	; 0x48a <_ZN2DB14verifica_senhaEPhh+0x2e>
		 
		 for(int i=0;i<tamanho_senha;i++){
 			if(senha[i]==db[0].senha[i])
 460:	fc 01       	movw	r30, r24
 462:	43 81       	ldd	r20, Z+3	; 0x03
 464:	54 81       	ldd	r21, Z+4	; 0x04
 466:	a6 2f       	mov	r26, r22
 468:	b7 2f       	mov	r27, r23
 46a:	fa 01       	movw	r30, r20
 46c:	31 96       	adiw	r30, 0x01	; 1
 46e:	49 5f       	subi	r20, 0xF9	; 249
 470:	5f 4f       	sbci	r21, 0xFF	; 255
 472:	20 e0       	ldi	r18, 0x00	; 0
 474:	30 e0       	ldi	r19, 0x00	; 0
 476:	9d 91       	ld	r25, X+
 478:	81 91       	ld	r24, Z+
 47a:	98 13       	cpse	r25, r24
 47c:	02 c0       	rjmp	.+4      	; 0x482 <_ZN2DB14verifica_senhaEPhh+0x26>
 				caracteres_corretos++;
 47e:	2f 5f       	subi	r18, 0xFF	; 255
 480:	3f 4f       	sbci	r19, 0xFF	; 255

bool DB::verifica_senha(unsigned char *senha,unsigned char tamanho_senha){
	int caracteres_corretos=0;
 	if(tamanho_senha==6){
		 
		 for(int i=0;i<tamanho_senha;i++){
 482:	e4 17       	cp	r30, r20
 484:	f5 07       	cpc	r31, r21
 486:	b9 f7       	brne	.-18     	; 0x476 <_ZN2DB14verifica_senhaEPhh+0x1a>
 488:	02 c0       	rjmp	.+4      	; 0x48e <_ZN2DB14verifica_senhaEPhh+0x32>
	db[n-1].acessos=48;
	lcd.usuario_criado(&db[n-1].userID);
}

bool DB::verifica_senha(unsigned char *senha,unsigned char tamanho_senha){
	int caracteres_corretos=0;
 48a:	20 e0       	ldi	r18, 0x00	; 0
 48c:	30 e0       	ldi	r19, 0x00	; 0
 48e:	81 e0       	ldi	r24, 0x01	; 1
 490:	26 30       	cpi	r18, 0x06	; 6
 492:	31 05       	cpc	r19, r1
 494:	09 f0       	breq	.+2      	; 0x498 <_ZN2DB14verifica_senhaEPhh+0x3c>
 496:	80 e0       	ldi	r24, 0x00	; 0
 	}
	 if (caracteres_corretos==6)
		 return true;
	 else
		return false;
 498:	08 95       	ret

0000049a <malloc>:
 49a:	0f 93       	push	r16
 49c:	1f 93       	push	r17
 49e:	cf 93       	push	r28
 4a0:	df 93       	push	r29
 4a2:	82 30       	cpi	r24, 0x02	; 2
 4a4:	91 05       	cpc	r25, r1
 4a6:	10 f4       	brcc	.+4      	; 0x4ac <malloc+0x12>
 4a8:	82 e0       	ldi	r24, 0x02	; 2
 4aa:	90 e0       	ldi	r25, 0x00	; 0
 4ac:	e0 91 6d 01 	lds	r30, 0x016D	; 0x80016d <__flp>
 4b0:	f0 91 6e 01 	lds	r31, 0x016E	; 0x80016e <__flp+0x1>
 4b4:	20 e0       	ldi	r18, 0x00	; 0
 4b6:	30 e0       	ldi	r19, 0x00	; 0
 4b8:	a0 e0       	ldi	r26, 0x00	; 0
 4ba:	b0 e0       	ldi	r27, 0x00	; 0
 4bc:	30 97       	sbiw	r30, 0x00	; 0
 4be:	19 f1       	breq	.+70     	; 0x506 <malloc+0x6c>
 4c0:	40 81       	ld	r20, Z
 4c2:	51 81       	ldd	r21, Z+1	; 0x01
 4c4:	02 81       	ldd	r16, Z+2	; 0x02
 4c6:	13 81       	ldd	r17, Z+3	; 0x03
 4c8:	48 17       	cp	r20, r24
 4ca:	59 07       	cpc	r21, r25
 4cc:	c8 f0       	brcs	.+50     	; 0x500 <malloc+0x66>
 4ce:	84 17       	cp	r24, r20
 4d0:	95 07       	cpc	r25, r21
 4d2:	69 f4       	brne	.+26     	; 0x4ee <malloc+0x54>
 4d4:	10 97       	sbiw	r26, 0x00	; 0
 4d6:	31 f0       	breq	.+12     	; 0x4e4 <malloc+0x4a>
 4d8:	12 96       	adiw	r26, 0x02	; 2
 4da:	0c 93       	st	X, r16
 4dc:	12 97       	sbiw	r26, 0x02	; 2
 4de:	13 96       	adiw	r26, 0x03	; 3
 4e0:	1c 93       	st	X, r17
 4e2:	27 c0       	rjmp	.+78     	; 0x532 <malloc+0x98>
 4e4:	00 93 6d 01 	sts	0x016D, r16	; 0x80016d <__flp>
 4e8:	10 93 6e 01 	sts	0x016E, r17	; 0x80016e <__flp+0x1>
 4ec:	22 c0       	rjmp	.+68     	; 0x532 <malloc+0x98>
 4ee:	21 15       	cp	r18, r1
 4f0:	31 05       	cpc	r19, r1
 4f2:	19 f0       	breq	.+6      	; 0x4fa <malloc+0x60>
 4f4:	42 17       	cp	r20, r18
 4f6:	53 07       	cpc	r21, r19
 4f8:	18 f4       	brcc	.+6      	; 0x500 <malloc+0x66>
 4fa:	9a 01       	movw	r18, r20
 4fc:	bd 01       	movw	r22, r26
 4fe:	ef 01       	movw	r28, r30
 500:	df 01       	movw	r26, r30
 502:	f8 01       	movw	r30, r16
 504:	db cf       	rjmp	.-74     	; 0x4bc <malloc+0x22>
 506:	21 15       	cp	r18, r1
 508:	31 05       	cpc	r19, r1
 50a:	f9 f0       	breq	.+62     	; 0x54a <malloc+0xb0>
 50c:	28 1b       	sub	r18, r24
 50e:	39 0b       	sbc	r19, r25
 510:	24 30       	cpi	r18, 0x04	; 4
 512:	31 05       	cpc	r19, r1
 514:	80 f4       	brcc	.+32     	; 0x536 <malloc+0x9c>
 516:	8a 81       	ldd	r24, Y+2	; 0x02
 518:	9b 81       	ldd	r25, Y+3	; 0x03
 51a:	61 15       	cp	r22, r1
 51c:	71 05       	cpc	r23, r1
 51e:	21 f0       	breq	.+8      	; 0x528 <malloc+0x8e>
 520:	fb 01       	movw	r30, r22
 522:	93 83       	std	Z+3, r25	; 0x03
 524:	82 83       	std	Z+2, r24	; 0x02
 526:	04 c0       	rjmp	.+8      	; 0x530 <malloc+0x96>
 528:	90 93 6e 01 	sts	0x016E, r25	; 0x80016e <__flp+0x1>
 52c:	80 93 6d 01 	sts	0x016D, r24	; 0x80016d <__flp>
 530:	fe 01       	movw	r30, r28
 532:	32 96       	adiw	r30, 0x02	; 2
 534:	44 c0       	rjmp	.+136    	; 0x5be <malloc+0x124>
 536:	fe 01       	movw	r30, r28
 538:	e2 0f       	add	r30, r18
 53a:	f3 1f       	adc	r31, r19
 53c:	81 93       	st	Z+, r24
 53e:	91 93       	st	Z+, r25
 540:	22 50       	subi	r18, 0x02	; 2
 542:	31 09       	sbc	r19, r1
 544:	39 83       	std	Y+1, r19	; 0x01
 546:	28 83       	st	Y, r18
 548:	3a c0       	rjmp	.+116    	; 0x5be <malloc+0x124>
 54a:	20 91 6b 01 	lds	r18, 0x016B	; 0x80016b <__brkval>
 54e:	30 91 6c 01 	lds	r19, 0x016C	; 0x80016c <__brkval+0x1>
 552:	23 2b       	or	r18, r19
 554:	41 f4       	brne	.+16     	; 0x566 <malloc+0xcc>
 556:	20 91 02 01 	lds	r18, 0x0102	; 0x800102 <__malloc_heap_start>
 55a:	30 91 03 01 	lds	r19, 0x0103	; 0x800103 <__malloc_heap_start+0x1>
 55e:	30 93 6c 01 	sts	0x016C, r19	; 0x80016c <__brkval+0x1>
 562:	20 93 6b 01 	sts	0x016B, r18	; 0x80016b <__brkval>
 566:	20 91 00 01 	lds	r18, 0x0100	; 0x800100 <__data_start>
 56a:	30 91 01 01 	lds	r19, 0x0101	; 0x800101 <__data_start+0x1>
 56e:	21 15       	cp	r18, r1
 570:	31 05       	cpc	r19, r1
 572:	41 f4       	brne	.+16     	; 0x584 <malloc+0xea>
 574:	2d b7       	in	r18, 0x3d	; 61
 576:	3e b7       	in	r19, 0x3e	; 62
 578:	40 91 04 01 	lds	r20, 0x0104	; 0x800104 <__malloc_margin>
 57c:	50 91 05 01 	lds	r21, 0x0105	; 0x800105 <__malloc_margin+0x1>
 580:	24 1b       	sub	r18, r20
 582:	35 0b       	sbc	r19, r21
 584:	e0 91 6b 01 	lds	r30, 0x016B	; 0x80016b <__brkval>
 588:	f0 91 6c 01 	lds	r31, 0x016C	; 0x80016c <__brkval+0x1>
 58c:	e2 17       	cp	r30, r18
 58e:	f3 07       	cpc	r31, r19
 590:	a0 f4       	brcc	.+40     	; 0x5ba <malloc+0x120>
 592:	2e 1b       	sub	r18, r30
 594:	3f 0b       	sbc	r19, r31
 596:	28 17       	cp	r18, r24
 598:	39 07       	cpc	r19, r25
 59a:	78 f0       	brcs	.+30     	; 0x5ba <malloc+0x120>
 59c:	ac 01       	movw	r20, r24
 59e:	4e 5f       	subi	r20, 0xFE	; 254
 5a0:	5f 4f       	sbci	r21, 0xFF	; 255
 5a2:	24 17       	cp	r18, r20
 5a4:	35 07       	cpc	r19, r21
 5a6:	48 f0       	brcs	.+18     	; 0x5ba <malloc+0x120>
 5a8:	4e 0f       	add	r20, r30
 5aa:	5f 1f       	adc	r21, r31
 5ac:	50 93 6c 01 	sts	0x016C, r21	; 0x80016c <__brkval+0x1>
 5b0:	40 93 6b 01 	sts	0x016B, r20	; 0x80016b <__brkval>
 5b4:	81 93       	st	Z+, r24
 5b6:	91 93       	st	Z+, r25
 5b8:	02 c0       	rjmp	.+4      	; 0x5be <malloc+0x124>
 5ba:	e0 e0       	ldi	r30, 0x00	; 0
 5bc:	f0 e0       	ldi	r31, 0x00	; 0
 5be:	cf 01       	movw	r24, r30
 5c0:	df 91       	pop	r29
 5c2:	cf 91       	pop	r28
 5c4:	1f 91       	pop	r17
 5c6:	0f 91       	pop	r16
 5c8:	08 95       	ret

000005ca <free>:
 5ca:	cf 93       	push	r28
 5cc:	df 93       	push	r29
 5ce:	00 97       	sbiw	r24, 0x00	; 0
 5d0:	09 f4       	brne	.+2      	; 0x5d4 <free+0xa>
 5d2:	81 c0       	rjmp	.+258    	; 0x6d6 <free+0x10c>
 5d4:	fc 01       	movw	r30, r24
 5d6:	32 97       	sbiw	r30, 0x02	; 2
 5d8:	13 82       	std	Z+3, r1	; 0x03
 5da:	12 82       	std	Z+2, r1	; 0x02
 5dc:	a0 91 6d 01 	lds	r26, 0x016D	; 0x80016d <__flp>
 5e0:	b0 91 6e 01 	lds	r27, 0x016E	; 0x80016e <__flp+0x1>
 5e4:	10 97       	sbiw	r26, 0x00	; 0
 5e6:	81 f4       	brne	.+32     	; 0x608 <free+0x3e>
 5e8:	20 81       	ld	r18, Z
 5ea:	31 81       	ldd	r19, Z+1	; 0x01
 5ec:	82 0f       	add	r24, r18
 5ee:	93 1f       	adc	r25, r19
 5f0:	20 91 6b 01 	lds	r18, 0x016B	; 0x80016b <__brkval>
 5f4:	30 91 6c 01 	lds	r19, 0x016C	; 0x80016c <__brkval+0x1>
 5f8:	28 17       	cp	r18, r24
 5fa:	39 07       	cpc	r19, r25
 5fc:	51 f5       	brne	.+84     	; 0x652 <free+0x88>
 5fe:	f0 93 6c 01 	sts	0x016C, r31	; 0x80016c <__brkval+0x1>
 602:	e0 93 6b 01 	sts	0x016B, r30	; 0x80016b <__brkval>
 606:	67 c0       	rjmp	.+206    	; 0x6d6 <free+0x10c>
 608:	ed 01       	movw	r28, r26
 60a:	20 e0       	ldi	r18, 0x00	; 0
 60c:	30 e0       	ldi	r19, 0x00	; 0
 60e:	ce 17       	cp	r28, r30
 610:	df 07       	cpc	r29, r31
 612:	40 f4       	brcc	.+16     	; 0x624 <free+0x5a>
 614:	4a 81       	ldd	r20, Y+2	; 0x02
 616:	5b 81       	ldd	r21, Y+3	; 0x03
 618:	9e 01       	movw	r18, r28
 61a:	41 15       	cp	r20, r1
 61c:	51 05       	cpc	r21, r1
 61e:	f1 f0       	breq	.+60     	; 0x65c <free+0x92>
 620:	ea 01       	movw	r28, r20
 622:	f5 cf       	rjmp	.-22     	; 0x60e <free+0x44>
 624:	d3 83       	std	Z+3, r29	; 0x03
 626:	c2 83       	std	Z+2, r28	; 0x02
 628:	40 81       	ld	r20, Z
 62a:	51 81       	ldd	r21, Z+1	; 0x01
 62c:	84 0f       	add	r24, r20
 62e:	95 1f       	adc	r25, r21
 630:	c8 17       	cp	r28, r24
 632:	d9 07       	cpc	r29, r25
 634:	59 f4       	brne	.+22     	; 0x64c <free+0x82>
 636:	88 81       	ld	r24, Y
 638:	99 81       	ldd	r25, Y+1	; 0x01
 63a:	84 0f       	add	r24, r20
 63c:	95 1f       	adc	r25, r21
 63e:	02 96       	adiw	r24, 0x02	; 2
 640:	91 83       	std	Z+1, r25	; 0x01
 642:	80 83       	st	Z, r24
 644:	8a 81       	ldd	r24, Y+2	; 0x02
 646:	9b 81       	ldd	r25, Y+3	; 0x03
 648:	93 83       	std	Z+3, r25	; 0x03
 64a:	82 83       	std	Z+2, r24	; 0x02
 64c:	21 15       	cp	r18, r1
 64e:	31 05       	cpc	r19, r1
 650:	29 f4       	brne	.+10     	; 0x65c <free+0x92>
 652:	f0 93 6e 01 	sts	0x016E, r31	; 0x80016e <__flp+0x1>
 656:	e0 93 6d 01 	sts	0x016D, r30	; 0x80016d <__flp>
 65a:	3d c0       	rjmp	.+122    	; 0x6d6 <free+0x10c>
 65c:	e9 01       	movw	r28, r18
 65e:	fb 83       	std	Y+3, r31	; 0x03
 660:	ea 83       	std	Y+2, r30	; 0x02
 662:	49 91       	ld	r20, Y+
 664:	59 91       	ld	r21, Y+
 666:	c4 0f       	add	r28, r20
 668:	d5 1f       	adc	r29, r21
 66a:	ec 17       	cp	r30, r28
 66c:	fd 07       	cpc	r31, r29
 66e:	61 f4       	brne	.+24     	; 0x688 <free+0xbe>
 670:	80 81       	ld	r24, Z
 672:	91 81       	ldd	r25, Z+1	; 0x01
 674:	84 0f       	add	r24, r20
 676:	95 1f       	adc	r25, r21
 678:	02 96       	adiw	r24, 0x02	; 2
 67a:	e9 01       	movw	r28, r18
 67c:	99 83       	std	Y+1, r25	; 0x01
 67e:	88 83       	st	Y, r24
 680:	82 81       	ldd	r24, Z+2	; 0x02
 682:	93 81       	ldd	r25, Z+3	; 0x03
 684:	9b 83       	std	Y+3, r25	; 0x03
 686:	8a 83       	std	Y+2, r24	; 0x02
 688:	e0 e0       	ldi	r30, 0x00	; 0
 68a:	f0 e0       	ldi	r31, 0x00	; 0
 68c:	12 96       	adiw	r26, 0x02	; 2
 68e:	8d 91       	ld	r24, X+
 690:	9c 91       	ld	r25, X
 692:	13 97       	sbiw	r26, 0x03	; 3
 694:	00 97       	sbiw	r24, 0x00	; 0
 696:	19 f0       	breq	.+6      	; 0x69e <free+0xd4>
 698:	fd 01       	movw	r30, r26
 69a:	dc 01       	movw	r26, r24
 69c:	f7 cf       	rjmp	.-18     	; 0x68c <free+0xc2>
 69e:	8d 91       	ld	r24, X+
 6a0:	9c 91       	ld	r25, X
 6a2:	11 97       	sbiw	r26, 0x01	; 1
 6a4:	9d 01       	movw	r18, r26
 6a6:	2e 5f       	subi	r18, 0xFE	; 254
 6a8:	3f 4f       	sbci	r19, 0xFF	; 255
 6aa:	82 0f       	add	r24, r18
 6ac:	93 1f       	adc	r25, r19
 6ae:	20 91 6b 01 	lds	r18, 0x016B	; 0x80016b <__brkval>
 6b2:	30 91 6c 01 	lds	r19, 0x016C	; 0x80016c <__brkval+0x1>
 6b6:	28 17       	cp	r18, r24
 6b8:	39 07       	cpc	r19, r25
 6ba:	69 f4       	brne	.+26     	; 0x6d6 <free+0x10c>
 6bc:	30 97       	sbiw	r30, 0x00	; 0
 6be:	29 f4       	brne	.+10     	; 0x6ca <free+0x100>
 6c0:	10 92 6e 01 	sts	0x016E, r1	; 0x80016e <__flp+0x1>
 6c4:	10 92 6d 01 	sts	0x016D, r1	; 0x80016d <__flp>
 6c8:	02 c0       	rjmp	.+4      	; 0x6ce <free+0x104>
 6ca:	13 82       	std	Z+3, r1	; 0x03
 6cc:	12 82       	std	Z+2, r1	; 0x02
 6ce:	b0 93 6c 01 	sts	0x016C, r27	; 0x80016c <__brkval+0x1>
 6d2:	a0 93 6b 01 	sts	0x016B, r26	; 0x80016b <__brkval>
 6d6:	df 91       	pop	r29
 6d8:	cf 91       	pop	r28
 6da:	08 95       	ret

000006dc <_exit>:
 6dc:	f8 94       	cli

000006de <__stop_program>:
 6de:	ff cf       	rjmp	.-2      	; 0x6de <__stop_program>
